; Function Attrs: nounwind uwtable
define noundef ptr @ggml_soft_max_ext_back(ptr noundef captures(none) %0, ptr noundef %1, ptr noundef %2, float noundef %3, float noundef %4) local_unnamed_addr #4 {
  %6 = load i32, ptr %1, align 8, !tbaa !40
  %7 = getelementptr inbounds nuw i8, ptr %1, i64 16
  %8 = tail call fastcc noundef ptr @ggml_new_tensor_impl(ptr noundef %0, i32 noundef %6, i32 noundef 4, ptr noundef nonnull readonly %7, ptr noundef null, i64 noundef 0)
  %9 = getelementptr inbounds nuw i8, ptr %8, i64 80
  store i32 43, ptr %9, align 8, !tbaa !55
  %10 = getelementptr inbounds nuw i8, ptr %8, i64 152
  store ptr %1, ptr %10, align 8, !tbaa !81
  %11 = getelementptr inbounds nuw i8, ptr %8, i64 160
  store ptr %2, ptr %11, align 8, !tbaa !81
  %12 = getelementptr inbounds nuw i8, ptr %8, i64 84
  store float %3, ptr %12, align 4
  %13 = getelementptr inbounds nuw i8, ptr %8, i64 88
  store float %4, ptr %13, align 4
  ret ptr %8
}